; Function Attrs: mustprogress nounwind uwtable
define dso_local noundef zeroext i1 @_ZNK4llvm5Value12isSwiftErrorEv(ptr noundef nonnull align 8 dereferenceable(24) %0) local_unnamed_addr #0 align 2 {
  %2 = load i8, ptr %0, align 8
  switch i8 %2, label %10 [
    i8 22, label %3
    i8 60, label %5
  ]

3:                                                ; preds = %1
  %4 = tail call noundef zeroext i1 @_ZNK4llvm8Argument17hasSwiftErrorAttrEv(ptr noundef nonnull align 8 dereferenceable(40) %0) #21
  br label %10

5:                                                ; preds = %1
  %6 = getelementptr inbounds nuw i8, ptr %0, i64 2
  %7 = load i16, ptr %6, align 2
  %8 = and i16 %7, 128
  %9 = icmp ne i16 %8, 0
  br label %10

10:                                               ; preds = %1, %5, %3
  %.0 = phi i1 [ %4, %3 ], [ %9, %5 ], [ false, %1 ]
  ret i1 %.0
}